
functions64:     file format elf64-x86-64


Disassembly of section .init:

00000000000004b8 <_init>:
 4b8:	48 83 ec 08          	sub    rsp,0x8
 4bc:	48 8b 05 25 0b 20 00 	mov    rax,QWORD PTR [rip+0x200b25]        # 200fe8 <__gmon_start__>
 4c3:	48 85 c0             	test   rax,rax
 4c6:	74 02                	je     4ca <_init+0x12>
 4c8:	ff d0                	call   rax
 4ca:	48 83 c4 08          	add    rsp,0x8
 4ce:	c3                   	ret    

Disassembly of section .plt:

00000000000004d0 <.plt>:
 4d0:	ff 35 f2 0a 20 00    	push   QWORD PTR [rip+0x200af2]        # 200fc8 <_GLOBAL_OFFSET_TABLE_+0x8>
 4d6:	ff 25 f4 0a 20 00    	jmp    QWORD PTR [rip+0x200af4]        # 200fd0 <_GLOBAL_OFFSET_TABLE_+0x10>
 4dc:	0f 1f 40 00          	nop    DWORD PTR [rax+0x0]

Disassembly of section .plt.got:

00000000000004e0 <__cxa_finalize@plt>:
 4e0:	ff 25 12 0b 20 00    	jmp    QWORD PTR [rip+0x200b12]        # 200ff8 <__cxa_finalize@GLIBC_2.2.5>
 4e6:	66 90                	xchg   ax,ax

Disassembly of section .text:

00000000000004f0 <_start>:
 4f0:	31 ed                	xor    ebp,ebp
 4f2:	49 89 d1             	mov    r9,rdx
 4f5:	5e                   	pop    rsi
 4f6:	48 89 e2             	mov    rdx,rsp
 4f9:	48 83 e4 f0          	and    rsp,0xfffffffffffffff0
 4fd:	50                   	push   rax
 4fe:	54                   	push   rsp
 4ff:	4c 8d 05 9a 02 00 00 	lea    r8,[rip+0x29a]        # 7a0 <__libc_csu_fini>
 506:	48 8d 0d 23 02 00 00 	lea    rcx,[rip+0x223]        # 730 <__libc_csu_init>
 50d:	48 8d 3d 88 01 00 00 	lea    rdi,[rip+0x188]        # 69c <main>
 514:	ff 15 c6 0a 20 00    	call   QWORD PTR [rip+0x200ac6]        # 200fe0 <__libc_start_main@GLIBC_2.2.5>
 51a:	f4                   	hlt    
 51b:	0f 1f 44 00 00       	nop    DWORD PTR [rax+rax*1+0x0]

0000000000000520 <deregister_tm_clones>:
 520:	48 8d 3d e9 0a 20 00 	lea    rdi,[rip+0x200ae9]        # 201010 <__TMC_END__>
 527:	55                   	push   rbp
 528:	48 8d 05 e1 0a 20 00 	lea    rax,[rip+0x200ae1]        # 201010 <__TMC_END__>
 52f:	48 39 f8             	cmp    rax,rdi
 532:	48 89 e5             	mov    rbp,rsp
 535:	74 19                	je     550 <deregister_tm_clones+0x30>
 537:	48 8b 05 9a 0a 20 00 	mov    rax,QWORD PTR [rip+0x200a9a]        # 200fd8 <_ITM_deregisterTMCloneTable>
 53e:	48 85 c0             	test   rax,rax
 541:	74 0d                	je     550 <deregister_tm_clones+0x30>
 543:	5d                   	pop    rbp
 544:	ff e0                	jmp    rax
 546:	66 2e 0f 1f 84 00 00 	nop    WORD PTR cs:[rax+rax*1+0x0]
 54d:	00 00 00 
 550:	5d                   	pop    rbp
 551:	c3                   	ret    
 552:	0f 1f 40 00          	nop    DWORD PTR [rax+0x0]
 556:	66 2e 0f 1f 84 00 00 	nop    WORD PTR cs:[rax+rax*1+0x0]
 55d:	00 00 00 

0000000000000560 <register_tm_clones>:
 560:	48 8d 3d a9 0a 20 00 	lea    rdi,[rip+0x200aa9]        # 201010 <__TMC_END__>
 567:	48 8d 35 a2 0a 20 00 	lea    rsi,[rip+0x200aa2]        # 201010 <__TMC_END__>
 56e:	55                   	push   rbp
 56f:	48 29 fe             	sub    rsi,rdi
 572:	48 89 e5             	mov    rbp,rsp
 575:	48 c1 fe 03          	sar    rsi,0x3
 579:	48 89 f0             	mov    rax,rsi
 57c:	48 c1 e8 3f          	shr    rax,0x3f
 580:	48 01 c6             	add    rsi,rax
 583:	48 d1 fe             	sar    rsi,1
 586:	74 18                	je     5a0 <register_tm_clones+0x40>
 588:	48 8b 05 61 0a 20 00 	mov    rax,QWORD PTR [rip+0x200a61]        # 200ff0 <_ITM_registerTMCloneTable>
 58f:	48 85 c0             	test   rax,rax
 592:	74 0c                	je     5a0 <register_tm_clones+0x40>
 594:	5d                   	pop    rbp
 595:	ff e0                	jmp    rax
 597:	66 0f 1f 84 00 00 00 	nop    WORD PTR [rax+rax*1+0x0]
 59e:	00 00 
 5a0:	5d                   	pop    rbp
 5a1:	c3                   	ret    
 5a2:	0f 1f 40 00          	nop    DWORD PTR [rax+0x0]
 5a6:	66 2e 0f 1f 84 00 00 	nop    WORD PTR cs:[rax+rax*1+0x0]
 5ad:	00 00 00 

00000000000005b0 <__do_global_dtors_aux>:
 5b0:	80 3d 59 0a 20 00 00 	cmp    BYTE PTR [rip+0x200a59],0x0        # 201010 <__TMC_END__>
 5b7:	75 2f                	jne    5e8 <__do_global_dtors_aux+0x38>
 5b9:	48 83 3d 37 0a 20 00 	cmp    QWORD PTR [rip+0x200a37],0x0        # 200ff8 <__cxa_finalize@GLIBC_2.2.5>
 5c0:	00 
 5c1:	55                   	push   rbp
 5c2:	48 89 e5             	mov    rbp,rsp
 5c5:	74 0c                	je     5d3 <__do_global_dtors_aux+0x23>
 5c7:	48 8b 3d 3a 0a 20 00 	mov    rdi,QWORD PTR [rip+0x200a3a]        # 201008 <__dso_handle>
 5ce:	e8 0d ff ff ff       	call   4e0 <__cxa_finalize@plt>
 5d3:	e8 48 ff ff ff       	call   520 <deregister_tm_clones>
 5d8:	c6 05 31 0a 20 00 01 	mov    BYTE PTR [rip+0x200a31],0x1        # 201010 <__TMC_END__>
 5df:	5d                   	pop    rbp
 5e0:	c3                   	ret    
 5e1:	0f 1f 80 00 00 00 00 	nop    DWORD PTR [rax+0x0]
 5e8:	f3 c3                	repz ret 
 5ea:	66 0f 1f 44 00 00    	nop    WORD PTR [rax+rax*1+0x0]

00000000000005f0 <frame_dummy>:
 5f0:	55                   	push   rbp
 5f1:	48 89 e5             	mov    rbp,rsp
 5f4:	5d                   	pop    rbp
 5f5:	e9 66 ff ff ff       	jmp    560 <register_tm_clones>

00000000000005fa <fun1>:
 5fa:	55                   	push   rbp
 5fb:	48 89 e5             	mov    rbp,rsp
 5fe:	90                   	nop
 5ff:	90                   	nop
 600:	5d                   	pop    rbp
 601:	c3                   	ret    

0000000000000602 <fun2>:
 602:	55                   	push   rbp
 603:	48 89 e5             	mov    rbp,rsp
 606:	90                   	nop
 607:	b8 34 12 00 00       	mov    eax,0x1234
 60c:	5d                   	pop    rbp
 60d:	c3                   	ret    

000000000000060e <fun3>:
 60e:	55                   	push   rbp
 60f:	48 89 e5             	mov    rbp,rsp
 612:	89 7d fc             	mov    DWORD PTR [rbp-0x4],edi
 615:	90                   	nop
 616:	8b 45 fc             	mov    eax,DWORD PTR [rbp-0x4]
 619:	83 c0 01             	add    eax,0x1
 61c:	5d                   	pop    rbp
 61d:	c3                   	ret    

000000000000061e <fun4>:
 61e:	55                   	push   rbp
 61f:	48 89 e5             	mov    rbp,rsp
 622:	89 7d fc             	mov    DWORD PTR [rbp-0x4],edi
 625:	89 75 f8             	mov    DWORD PTR [rbp-0x8],esi
 628:	90                   	nop
 629:	8b 55 fc             	mov    edx,DWORD PTR [rbp-0x4]
 62c:	8b 45 f8             	mov    eax,DWORD PTR [rbp-0x8]
 62f:	01 d0                	add    eax,edx
 631:	5d                   	pop    rbp
 632:	c3                   	ret    

0000000000000633 <fun5>:
 633:	55                   	push   rbp
 634:	48 89 e5             	mov    rbp,rsp
 637:	89 7d fc             	mov    DWORD PTR [rbp-0x4],edi
 63a:	89 75 f8             	mov    DWORD PTR [rbp-0x8],esi
 63d:	89 55 f4             	mov    DWORD PTR [rbp-0xc],edx
 640:	89 4d f0             	mov    DWORD PTR [rbp-0x10],ecx
 643:	44 89 45 ec          	mov    DWORD PTR [rbp-0x14],r8d
 647:	44 89 4d e8          	mov    DWORD PTR [rbp-0x18],r9d
 64b:	90                   	nop
 64c:	8b 55 fc             	mov    edx,DWORD PTR [rbp-0x4]
 64f:	8b 45 f8             	mov    eax,DWORD PTR [rbp-0x8]
 652:	01 c2                	add    edx,eax
 654:	8b 45 f4             	mov    eax,DWORD PTR [rbp-0xc]
 657:	01 c2                	add    edx,eax
 659:	8b 45 f0             	mov    eax,DWORD PTR [rbp-0x10]
 65c:	01 c2                	add    edx,eax
 65e:	8b 45 ec             	mov    eax,DWORD PTR [rbp-0x14]
 661:	01 c2                	add    edx,eax
 663:	8b 45 e8             	mov    eax,DWORD PTR [rbp-0x18]
 666:	01 c2                	add    edx,eax
 668:	8b 45 10             	mov    eax,DWORD PTR [rbp+0x10]
 66b:	01 c2                	add    edx,eax
 66d:	8b 45 18             	mov    eax,DWORD PTR [rbp+0x18]
 670:	01 c2                	add    edx,eax
 672:	8b 45 20             	mov    eax,DWORD PTR [rbp+0x20]
 675:	01 c2                	add    edx,eax
 677:	8b 45 28             	mov    eax,DWORD PTR [rbp+0x28]
 67a:	01 c2                	add    edx,eax
 67c:	8b 45 30             	mov    eax,DWORD PTR [rbp+0x30]
 67f:	01 c2                	add    edx,eax
 681:	8b 45 38             	mov    eax,DWORD PTR [rbp+0x38]
 684:	01 c2                	add    edx,eax
 686:	8b 45 40             	mov    eax,DWORD PTR [rbp+0x40]
 689:	01 c2                	add    edx,eax
 68b:	8b 45 48             	mov    eax,DWORD PTR [rbp+0x48]
 68e:	01 c2                	add    edx,eax
 690:	8b 45 50             	mov    eax,DWORD PTR [rbp+0x50]
 693:	01 c2                	add    edx,eax
 695:	8b 45 58             	mov    eax,DWORD PTR [rbp+0x58]
 698:	01 d0                	add    eax,edx
 69a:	5d                   	pop    rbp
 69b:	c3                   	ret    

000000000000069c <main>:
 69c:	55                   	push   rbp
 69d:	48 89 e5             	mov    rbp,rsp
 6a0:	48 83 ec 10          	sub    rsp,0x10
 6a4:	90                   	nop
 6a5:	b8 00 00 00 00       	mov    eax,0x0
 6aa:	e8 4b ff ff ff       	call   5fa <fun1>
 6af:	90                   	nop
 6b0:	b8 00 00 00 00       	mov    eax,0x0
 6b5:	e8 48 ff ff ff       	call   602 <fun2>
 6ba:	89 45 f0             	mov    DWORD PTR [rbp-0x10],eax
 6bd:	90                   	nop
 6be:	8b 45 f0             	mov    eax,DWORD PTR [rbp-0x10]
 6c1:	89 c7                	mov    edi,eax
 6c3:	e8 46 ff ff ff       	call   60e <fun3>
 6c8:	89 45 f4             	mov    DWORD PTR [rbp-0xc],eax
 6cb:	90                   	nop
 6cc:	8b 55 f4             	mov    edx,DWORD PTR [rbp-0xc]
 6cf:	8b 45 f0             	mov    eax,DWORD PTR [rbp-0x10]
 6d2:	89 d6                	mov    esi,edx
 6d4:	89 c7                	mov    edi,eax
 6d6:	e8 43 ff ff ff       	call   61e <fun4>
 6db:	89 45 f8             	mov    DWORD PTR [rbp-0x8],eax
 6de:	90                   	nop
 6df:	6a 0f                	push   0xf
 6e1:	6a 0e                	push   0xe
 6e3:	6a 0d                	push   0xd
 6e5:	6a 0c                	push   0xc
 6e7:	6a 0b                	push   0xb
 6e9:	6a 0a                	push   0xa
 6eb:	6a 09                	push   0x9
 6ed:	6a 08                	push   0x8
 6ef:	6a 07                	push   0x7
 6f1:	6a 06                	push   0x6
 6f3:	41 b9 05 00 00 00    	mov    r9d,0x5
 6f9:	41 b8 04 00 00 00    	mov    r8d,0x4
 6ff:	b9 03 00 00 00       	mov    ecx,0x3
 704:	ba 02 00 00 00       	mov    edx,0x2
 709:	be 01 00 00 00       	mov    esi,0x1
 70e:	bf 00 00 00 00       	mov    edi,0x0
 713:	e8 1b ff ff ff       	call   633 <fun5>
 718:	48 83 c4 50          	add    rsp,0x50
 71c:	89 45 fc             	mov    DWORD PTR [rbp-0x4],eax
 71f:	90                   	nop
 720:	b8 00 00 00 00       	mov    eax,0x0
 725:	c9                   	leave  
 726:	c3                   	ret    
 727:	66 0f 1f 84 00 00 00 	nop    WORD PTR [rax+rax*1+0x0]
 72e:	00 00 

0000000000000730 <__libc_csu_init>:
 730:	41 57                	push   r15
 732:	41 56                	push   r14
 734:	49 89 d7             	mov    r15,rdx
 737:	41 55                	push   r13
 739:	41 54                	push   r12
 73b:	4c 8d 25 ae 06 20 00 	lea    r12,[rip+0x2006ae]        # 200df0 <__frame_dummy_init_array_entry>
 742:	55                   	push   rbp
 743:	48 8d 2d ae 06 20 00 	lea    rbp,[rip+0x2006ae]        # 200df8 <__init_array_end>
 74a:	53                   	push   rbx
 74b:	41 89 fd             	mov    r13d,edi
 74e:	49 89 f6             	mov    r14,rsi
 751:	4c 29 e5             	sub    rbp,r12
 754:	48 83 ec 08          	sub    rsp,0x8
 758:	48 c1 fd 03          	sar    rbp,0x3
 75c:	e8 57 fd ff ff       	call   4b8 <_init>
 761:	48 85 ed             	test   rbp,rbp
 764:	74 20                	je     786 <__libc_csu_init+0x56>
 766:	31 db                	xor    ebx,ebx
 768:	0f 1f 84 00 00 00 00 	nop    DWORD PTR [rax+rax*1+0x0]
 76f:	00 
 770:	4c 89 fa             	mov    rdx,r15
 773:	4c 89 f6             	mov    rsi,r14
 776:	44 89 ef             	mov    edi,r13d
 779:	41 ff 14 dc          	call   QWORD PTR [r12+rbx*8]
 77d:	48 83 c3 01          	add    rbx,0x1
 781:	48 39 dd             	cmp    rbp,rbx
 784:	75 ea                	jne    770 <__libc_csu_init+0x40>
 786:	48 83 c4 08          	add    rsp,0x8
 78a:	5b                   	pop    rbx
 78b:	5d                   	pop    rbp
 78c:	41 5c                	pop    r12
 78e:	41 5d                	pop    r13
 790:	41 5e                	pop    r14
 792:	41 5f                	pop    r15
 794:	c3                   	ret    
 795:	90                   	nop
 796:	66 2e 0f 1f 84 00 00 	nop    WORD PTR cs:[rax+rax*1+0x0]
 79d:	00 00 00 

00000000000007a0 <__libc_csu_fini>:
 7a0:	f3 c3                	repz ret 

Disassembly of section .fini:

00000000000007a4 <_fini>:
 7a4:	48 83 ec 08          	sub    rsp,0x8
 7a8:	48 83 c4 08          	add    rsp,0x8
 7ac:	c3                   	ret    
